target datalayout = "e-m:e-p270:32:32-p271:32:32-p272:64:64-i64:64-i128:128-f80:128-n8:16:32:64-S128"
target triple = "x86_64-pc-linux-gnu"

; Function Attrs: mustprogress nounwind uwtable
define hidden noundef i32 @_ZN5zxing6common11StringUtils12is_big5_codeEPci(ptr noundef %0, i32 noundef %1) #2 align 2 {
  %3 = alloca i32, align 4
  %4 = alloca ptr, align 8
  %5 = alloca i32, align 4
  %6 = alloca i8, align 1
  %7 = alloca i32, align 4
  %8 = alloca i32, align 4
  %9 = alloca i8, align 1
  %10 = alloca i8, align 1
  %11 = alloca i32, align 4
  %12 = alloca i32, align 4
  %13 = alloca i32, align 4
  store ptr %0, ptr %4, align 8, !tbaa !3
  store i32 %1, ptr %5, align 4, !tbaa !8
  call void @llvm.lifetime.start.p0(i64 1, ptr %6) #14
  store i8 0, ptr %6, align 1, !tbaa !13
  call void @llvm.lifetime.start.p0(i64 4, ptr %7) #14
  store i32 0, ptr %7, align 4, !tbaa !8
  call void @llvm.lifetime.start.p0(i64 4, ptr %8) #14
  store i32 0, ptr %8, align 4, !tbaa !8
  call void @llvm.lifetime.start.p0(i64 1, ptr %9) #14
  store i8 0, ptr %9, align 1, !tbaa !13
  call void @llvm.lifetime.start.p0(i64 1, ptr %10) #14
  store i8 0, ptr %10, align 1, !tbaa !13
  call void @llvm.lifetime.start.p0(i64 4, ptr %11) #14
  store i32 0, ptr %11, align 4, !tbaa !8
  br label %14

14:                                               ; preds = %71, %64, %31, %2
  %15 = load i32, ptr %11, align 4, !tbaa !8
  %16 = load i32, ptr %5, align 4, !tbaa !8
  %17 = icmp slt i32 %15, %16
  br i1 %17, label %19, label %18

18:                                               ; preds = %14
  call void @llvm.lifetime.end.p0(i64 4, ptr %11) #14
  br label %76

19:                                               ; preds = %14
  %20 = load ptr, ptr %4, align 8, !tbaa !3
  %21 = load i32, ptr %11, align 4, !tbaa !8
  %22 = sext i32 %21 to i64
  %23 = getelementptr inbounds i8, ptr %20, i64 %22
  %24 = load i8, ptr %23, align 1, !tbaa !13
  store i8 %24, ptr %10, align 1, !tbaa !13
  %25 = load i8, ptr %10, align 1, !tbaa !13
  %26 = zext i8 %25 to i32
  %27 = ashr i32 %26, 7
  %28 = load i8, ptr %6, align 1, !tbaa !13
  %29 = zext i8 %28 to i32
  %30 = icmp eq i32 %27, %29
  br i1 %30, label %31, label %34

31:                                               ; preds = %19
  %32 = load i32, ptr %11, align 4, !tbaa !8
  %33 = add nsw i32 %32, 1
  store i32 %33, ptr %11, align 4, !tbaa !8
  br label %14, !llvm.loop !32

34:                                               ; preds = %19
  %35 = load i8, ptr %10, align 1, !tbaa !13
  %36 = zext i8 %35 to i32
  %37 = icmp sge i32 %36, 161
  br i1 %37, label %38, label %70

38:                                               ; preds = %34
  %39 = load i8, ptr %10, align 1, !tbaa !13
  %40 = zext i8 %39 to i32
  %41 = icmp sle i32 %40, 249
  br i1 %41, label %42, label %70

42:                                               ; preds = %38
  %43 = load ptr, ptr %4, align 8, !tbaa !3
  %44 = load i32, ptr %11, align 4, !tbaa !8
  %45 = add nsw i32 %44, 1
  %46 = sext i32 %45 to i64
  %47 = getelementptr inbounds i8, ptr %43, i64 %46
  %48 = load i8, ptr %47, align 1, !tbaa !13
  store i8 %48, ptr %9, align 1, !tbaa !13
  %49 = load i8, ptr %9, align 1, !tbaa !13
  %50 = zext i8 %49 to i32
  %51 = icmp sge i32 %50, 64
  br i1 %51, label %52, label %56

52:                                               ; preds = %42
  %53 = load i8, ptr %9, align 1, !tbaa !13
  %54 = zext i8 %53 to i32
  %55 = icmp sle i32 %54, 126
  br i1 %55, label %64, label %56

56:                                               ; preds = %52, %42
  %57 = load i8, ptr %9, align 1, !tbaa !13
  %58 = zext i8 %57 to i32
  %59 = icmp sge i32 %58, 161
  br i1 %59, label %60, label %69

60:                                               ; preds = %56
  %61 = load i8, ptr %9, align 1, !tbaa !13
  %62 = zext i8 %61 to i32
  %63 = icmp sle i32 %62, 254
  br i1 %63, label %64, label %69

64:                                               ; preds = %60, %52
  %65 = load i32, ptr %7, align 4, !tbaa !8
  %66 = add nsw i32 %65, 1
  store i32 %66, ptr %7, align 4, !tbaa !8
  %67 = load i32, ptr %11, align 4, !tbaa !8
  %68 = add nsw i32 %67, 2
  store i32 %68, ptr %11, align 4, !tbaa !8
  br label %14, !llvm.loop !32

69:                                               ; preds = %60, %56
  br label %70

70:                                               ; preds = %69, %38, %34
  br label %71

71:                                               ; preds = %70
  %72 = load i32, ptr %8, align 4, !tbaa !8
  %73 = add nsw i32 %72, 1
  store i32 %73, ptr %8, align 4, !tbaa !8
  %74 = load i32, ptr %11, align 4, !tbaa !8
  %75 = add nsw i32 %74, 2
  store i32 %75, ptr %11, align 4, !tbaa !8
  br label %14, !llvm.loop !32

76:                                               ; preds = %18
  %77 = load i32, ptr %7, align 4, !tbaa !8
  %78 = load i32, ptr %8, align 4, !tbaa !8
  %79 = add nsw i32 %77, %78
  %80 = icmp sgt i32 %79, 0
  br i1 %80, label %81, label %94

81:                                               ; preds = %76
  call void @llvm.lifetime.start.p0(i64 4, ptr %12) #14
  %82 = load i32, ptr %7, align 4, !tbaa !8
  %83 = mul nsw i32 100, %82
  %84 = load i32, ptr %7, align 4, !tbaa !8
  %85 = load i32, ptr %8, align 4, !tbaa !8
  %86 = add nsw i32 %84, %85
  %87 = sdiv i32 %83, %86
  store i32 %87, ptr %12, align 4, !tbaa !8
  %88 = load i32, ptr %12, align 4, !tbaa !8
  %89 = icmp eq i32 %88, 100
  br i1 %89, label %90, label %92

90:                                               ; preds = %81
  %91 = load i32, ptr %7, align 4, !tbaa !8
  store i32 %91, ptr %3, align 4
  store i32 1, ptr %13, align 4
  br label %93

92:                                               ; preds = %81
  store i32 0, ptr %3, align 4
  store i32 1, ptr %13, align 4
  br label %93

93:                                               ; preds = %92, %90
  call void @llvm.lifetime.end.p0(i64 4, ptr %12) #14
  br label %95

94:                                               ; preds = %76
  store i32 0, ptr %3, align 4
  store i32 1, ptr %13, align 4
  br label %95

95:                                               ; preds = %94, %93
  call void @llvm.lifetime.end.p0(i64 1, ptr %10) #14
  call void @llvm.lifetime.end.p0(i64 1, ptr %9) #14
  call void @llvm.lifetime.end.p0(i64 4, ptr %8) #14
  call void @llvm.lifetime.end.p0(i64 4, ptr %7) #14
  call void @llvm.lifetime.end.p0(i64 1, ptr %6) #14
  %96 = load i32, ptr %3, align 4
  ret i32 %96
}