; Function Attrs: mustprogress nofree norecurse nosync nounwind willreturn memory(argmem: read) uwtable
define hidden noundef i32 @_ZN5zxing6common11StringUtils12is_big5_codeEPci(ptr noundef readonly captures(none) %0, i32 noundef %1) local_unnamed_addr #6 align 2 {
  %invariant.gep = getelementptr i8, ptr %0, i64 1
  %3 = icmp sgt i32 %1, 0
  br i1 %3, label %.lr.ph.lr.ph.preheader, label %.outer39._crit_edge

.lr.ph.lr.ph.preheader:                           ; preds = %2
  %4 = zext nneg i32 %1 to i64
  br label %.lr.ph.lr.ph

.lr.ph.lr.ph:                                     ; preds = %.lr.ph.lr.ph.preheader, %.outer
  %.034.ph58 = phi i32 [ %22, %.outer ], [ 0, %.lr.ph.lr.ph.preheader ]
  %.035.ph57 = phi i32 [ %.035.ph4050, %.outer ], [ 0, %.lr.ph.lr.ph.preheader ]
  %.036.ph56 = phi i32 [ %21, %.outer ], [ 0, %.lr.ph.lr.ph.preheader ]
  br label %.lr.ph

.lr.ph:                                           ; preds = %.lr.ph.lr.ph, %.outer39
  %.034.ph4151 = phi i32 [ %.034.ph58, %.lr.ph.lr.ph ], [ %25, %.outer39 ]
  %.035.ph4050 = phi i32 [ %.035.ph57, %.lr.ph.lr.ph ], [ %24, %.outer39 ]
  %5 = sext i32 %.034.ph4151 to i64
  br label %8

.outer39._crit_edge:                              ; preds = %.outer, %.outer39, %12, %2
  %.036.ph.lcssa = phi i32 [ 0, %2 ], [ %.036.ph56, %12 ], [ %.036.ph56, %.outer39 ], [ %21, %.outer ]
  %.035.ph40.lcssa44 = phi i32 [ 0, %2 ], [ %.035.ph4050, %12 ], [ %24, %.outer39 ], [ %.035.ph4050, %.outer ]
  %6 = add nsw i32 %.035.ph40.lcssa44, %.036.ph.lcssa
  %7 = icmp sgt i32 %6, 0
  br i1 %7, label %27, label %31

8:                                                ; preds = %.lr.ph, %12
  %indvars.iv = phi i64 [ %5, %.lr.ph ], [ %indvars.iv.next, %12 ]
  %9 = getelementptr inbounds i8, ptr %0, i64 %indvars.iv
  %10 = load i8, ptr %9, align 1, !tbaa !12
  %11 = icmp sgt i8 %10, -1
  br i1 %11, label %12, label %14

12:                                               ; preds = %8
  %indvars.iv.next = add nsw i64 %indvars.iv, 1
  %13 = icmp slt i64 %indvars.iv.next, %4
  br i1 %13, label %8, label %.outer39._crit_edge, !llvm.loop !18

14:                                               ; preds = %8
  %15 = trunc nsw i64 %indvars.iv to i32
  %16 = add nsw i8 %10, 95
  %or.cond = icmp ult i8 %16, 89
  br i1 %or.cond, label %17, label %.outer39

17:                                               ; preds = %14
  %gep = getelementptr i8, ptr %invariant.gep, i64 %indvars.iv
  %18 = load i8, ptr %gep, align 1, !tbaa !12
  %19 = add i8 %18, -64
  %or.cond5 = icmp ult i8 %19, 63
  %20 = add i8 %18, 95
  %or.cond8 = icmp ult i8 %20, 94
  %or.cond38 = or i1 %or.cond5, %or.cond8
  br i1 %or.cond38, label %.outer, label %.outer39

.outer:                                           ; preds = %17
  %21 = add nuw nsw i32 %.036.ph56, 1
  %22 = add nsw i32 %15, 2
  %23 = icmp slt i32 %22, %1
  br i1 %23, label %.lr.ph.lr.ph, label %.outer39._crit_edge, !llvm.loop !18

.outer39:                                         ; preds = %17, %14
  %24 = add nsw i32 %.035.ph4050, 1
  %25 = add nsw i32 %15, 2
  %26 = icmp slt i32 %25, %1
  br i1 %26, label %.lr.ph, label %.outer39._crit_edge, !llvm.loop !18

27:                                               ; preds = %.outer39._crit_edge
  %28 = mul nsw i32 %.036.ph.lcssa, 100
  %29 = sdiv i32 %28, %6
  %30 = icmp eq i32 %29, 100
  %.036. = select i1 %30, i32 %.036.ph.lcssa, i32 0
  br label %31

31:                                               ; preds = %.outer39._crit_edge, %27
  %.1 = phi i32 [ %.036., %27 ], [ 0, %.outer39._crit_edge ]
  ret i32 %.1
}